	.text
	.file	"test04.c"
	.globl	add                             # -- Begin function add
	.p2align	4, 0x90
	.type	add,@function
add:                                    # @add
.Lfunc_begin0:
	.file	0 "/home/lkl/SoftwareIP/SIP/test" "test04.c" md5 0x525c548119d671b13f2a4511707bbfae
	.loc	0 6 0                           # test04.c:6:0
	.cfi_startproc
# %bb.0:                                # %entry
	pushq	%rbp
	.cfi_def_cfa_offset 16
	.cfi_offset %rbp, -16
	movq	%rsp, %rbp
	.cfi_def_cfa_register %rbp
	movq	%rdi, -8(%rbp)
.Ltmp0:
	.loc	0 7 6 prologue_end              # test04.c:7:6
	movq	-8(%rbp), %rax
	.loc	0 7 8 is_stmt 0                 # test04.c:7:8
	movl	$2, (%rax)
	.loc	0 8 1 epilogue_begin is_stmt 1  # test04.c:8:1
	popq	%rbp
	.cfi_def_cfa %rsp, 8
	retq
.Ltmp1:
.Lfunc_end0:
	.size	add, .Lfunc_end0-add
	.cfi_endproc
                                        # -- End function
	.globl	bar                             # -- Begin function bar
	.p2align	4, 0x90
	.type	bar,@function
bar:                                    # @bar
.Lfunc_begin1:
	.loc	0 10 0                          # test04.c:10:0
	.cfi_startproc
# %bb.0:                                # %entry
	pushq	%rbp
	.cfi_def_cfa_offset 16
	.cfi_offset %rbp, -16
	movq	%rsp, %rbp
	.cfi_def_cfa_register %rbp
	subq	$16, %rsp
	movq	%rdi, -8(%rbp)
.Ltmp2:
	.loc	0 11 9 prologue_end             # test04.c:11:9
	movq	-8(%rbp), %rdi
	.loc	0 11 5 is_stmt 0                # test04.c:11:5
	callq	add
	.loc	0 12 1 epilogue_begin is_stmt 1 # test04.c:12:1
	addq	$16, %rsp
	popq	%rbp
	.cfi_def_cfa %rsp, 8
	retq
.Ltmp3:
.Lfunc_end1:
	.size	bar, .Lfunc_end1-bar
	.cfi_endproc
                                        # -- End function
	.globl	foo                             # -- Begin function foo
	.p2align	4, 0x90
	.type	foo,@function
foo:                                    # @foo
.Lfunc_begin2:
	.loc	0 14 0                          # test04.c:14:0
	.cfi_startproc
# %bb.0:                                # %entry
	pushq	%rbp
	.cfi_def_cfa_offset 16
	.cfi_offset %rbp, -16
	movq	%rsp, %rbp
	.cfi_def_cfa_register %rbp
	subq	$16, %rsp
	movq	%rdi, -8(%rbp)
.Ltmp4:
	.loc	0 15 9 prologue_end             # test04.c:15:9
	movq	-8(%rbp), %rdi
	.loc	0 15 5 is_stmt 0                # test04.c:15:5
	callq	add
	.loc	0 16 1 epilogue_begin is_stmt 1 # test04.c:16:1
	addq	$16, %rsp
	popq	%rbp
	.cfi_def_cfa %rsp, 8
	retq
.Ltmp5:
.Lfunc_end2:
	.size	foo, .Lfunc_end2-foo
	.cfi_endproc
                                        # -- End function
	.globl	main                            # -- Begin function main
	.p2align	4, 0x90
	.type	main,@function
main:                                   # @main
.Lfunc_begin3:
	.loc	0 18 0                          # test04.c:18:0
	.cfi_startproc
# %bb.0:                                # %entry
	pushq	%rbp
	.cfi_def_cfa_offset 16
	.cfi_offset %rbp, -16
	movq	%rsp, %rbp
	.cfi_def_cfa_register %rbp
	subq	$16, %rsp
.Ltmp6:
	.loc	0 19 14 prologue_end            # test04.c:19:14
	movl	$4, %edi
	callq	malloc@PLT
	.loc	0 19 10 is_stmt 0               # test04.c:19:10
	movq	%rax, -8(%rbp)
	.loc	0 20 9 is_stmt 1                # test04.c:20:9
	movq	-8(%rbp), %rdi
	.loc	0 20 5 is_stmt 0                # test04.c:20:5
	callq	foo
	.loc	0 21 1 is_stmt 1                # test04.c:21:1
	xorl	%eax, %eax
	.loc	0 21 1 epilogue_begin is_stmt 0 # test04.c:21:1
	addq	$16, %rsp
	popq	%rbp
	.cfi_def_cfa %rsp, 8
	retq
.Ltmp7:
.Lfunc_end3:
	.size	main, .Lfunc_end3-main
	.cfi_endproc
                                        # -- End function
	.section	".note.GNU-stack","",@progbits
	.addrsig
	.addrsig_sym add
	.addrsig_sym foo
	.addrsig_sym malloc